; Function Attrs: nounwind uwtable
define internal ptr @list_count(ptr noundef readonly captures(none) %0, ptr noundef %1) #0 {
  %3 = getelementptr i8, ptr %0, i64 16
  %.val.i42 = load i64, ptr %3, align 8, !tbaa !33
  %.not.i3043.not = icmp eq i64 %.val.i42, 0
  br i1 %.not.i3043.not, label %list_get_item_ref.exit, label %.lr.ph

.lr.ph:                                           ; preds = %2
  %4 = getelementptr inbounds nuw i8, ptr %0, i64 24
  br label %5

5:                                                ; preds = %.lr.ph, %34
  %.01945 = phi i64 [ 0, %.lr.ph ], [ %.120.ph, %34 ]
  %.02344 = phi i64 [ 0, %.lr.ph ], [ %35, %34 ]
  %6 = load ptr, ptr %4, align 8, !tbaa !27
  %7 = getelementptr ptr, ptr %6, i64 %.02344
  %8 = load ptr, ptr %7, align 8, !tbaa !112
  %9 = load i32, ptr %8, align 8, !tbaa !32
  %10 = icmp slt i32 %9, 0
  br i1 %10, label %13, label %11

11:                                               ; preds = %5
  %12 = add nuw i32 %9, 1
  store i32 %12, ptr %8, align 8, !tbaa !32
  br label %13

13:                                               ; preds = %5, %11
  %14 = phi i32 [ %9, %5 ], [ %12, %11 ]
  %15 = icmp eq ptr %8, %1
  br i1 %15, label %16, label %22

16:                                               ; preds = %13
  %17 = add i64 %.01945, 1
  %.not.i27 = icmp sgt i32 %14, -1
  br i1 %.not.i27, label %18, label %34

18:                                               ; preds = %16
  %19 = add nsw i32 %14, -1
  store i32 %19, ptr %8, align 8, !tbaa !32
  %20 = icmp eq i32 %19, 0
  br i1 %20, label %21, label %34

21:                                               ; preds = %18
  tail call void @_Py_Dealloc(ptr noundef nonnull %8) #12
  br label %34

22:                                               ; preds = %13
  %23 = tail call i32 @PyObject_RichCompareBool(ptr noundef nonnull %8, ptr noundef %1, i32 noundef 2) #12
  %24 = load i32, ptr %8, align 8, !tbaa !32
  %.not.i = icmp sgt i32 %24, -1
  br i1 %.not.i, label %25, label %Py_DECREF.exit

25:                                               ; preds = %22
  %26 = add nsw i32 %24, -1
  store i32 %26, ptr %8, align 8, !tbaa !32
  %27 = icmp eq i32 %26, 0
  br i1 %27, label %28, label %Py_DECREF.exit

28:                                               ; preds = %25
  tail call void @_Py_Dealloc(ptr noundef nonnull %8) #12
  br label %Py_DECREF.exit

Py_DECREF.exit:                                   ; preds = %22, %25, %28
  %29 = icmp sgt i32 %23, 0
  br i1 %29, label %30, label %32

30:                                               ; preds = %Py_DECREF.exit
  %31 = add i64 %.01945, 1
  br label %34

32:                                               ; preds = %Py_DECREF.exit
  %33 = icmp slt i32 %23, 0
  br i1 %33, label %list_get_item_ref.exit.thread38, label %34

34:                                               ; preds = %30, %32, %16, %18, %21
  %.120.ph = phi i64 [ %17, %21 ], [ %17, %18 ], [ %17, %16 ], [ %.01945, %32 ], [ %31, %30 ]
  %35 = add nuw i64 %.02344, 1
  %.val.i = load i64, ptr %3, align 8, !tbaa !33
  %.not.i30 = icmp ult i64 %35, %.val.i
  br i1 %.not.i30, label %5, label %list_get_item_ref.exit

list_get_item_ref.exit:                           ; preds = %34, %2
  %.019.lcssa = phi i64 [ 0, %2 ], [ %.120.ph, %34 ]
  %36 = tail call ptr @PyLong_FromSsize_t(i64 noundef %.019.lcssa) #12
  br label %list_get_item_ref.exit.thread38

list_get_item_ref.exit.thread38:                  ; preds = %32, %list_get_item_ref.exit
  %.3 = phi ptr [ %36, %list_get_item_ref.exit ], [ null, %32 ]
  ret ptr %.3
}